; Function Attrs: mustprogress nofree norecurse nosync nounwind willreturn memory(write, argmem: readwrite, inaccessiblemem: none) uwtable
define dso_local void @sema_context_pop_ct_stack(ptr nocapture noundef readonly %0, i32 noundef %1) local_unnamed_addr #7 {
  %3 = getelementptr inbounds i8, ptr %0, i64 216
  %4 = load ptr, ptr %3, align 8
  %.not.i = icmp eq ptr %4, null
  br i1 %.not.i, label %vec_resize.exit, label %5

5:                                                ; preds = %2
  %6 = getelementptr inbounds i8, ptr %4, i64 -8
  store i32 %1, ptr %6, align 4
  br label %vec_resize.exit

vec_resize.exit:                                  ; preds = %2, %5
  ret void
}